target datalayout = "e-m:e-p270:32:32-p271:32:32-p272:64:64-i64:64-i128:128-f80:128-n8:16:32:64-S128"
target triple = "x86_64-unknown-linux-gnu"

%"class.std::__cxx11::basic_string" = type { %"struct.std::__cxx11::basic_string<char>::_Alloc_hider", i64, %union.anon }
%"struct.std::__cxx11::basic_string<char>::_Alloc_hider" = type { ptr }
%union.anon = type { i64, [8 x i8] }

; Function Attrs: mustprogress uwtable
define internal void @_ZN12_GLOBAL__N_113ExpectSpecialERKNSt7__cxx1112basic_stringIcSt11char_traitsIcESaIcEEEN4absl12chars_formatENS8_16strings_internal9FloatTypeE(ptr noundef nonnull align 8 dereferenceable(32) %s, i32 noundef %format_flags, i32 noundef %type) #4 personality ptr @__gxx_personality_v0 {
entry:
  %s.addr = alloca ptr, align 8
  %format_flags.addr = alloca i32, align 4
  %type.addr = alloca i32, align 4
  %agg.tmp = alloca %"class.std::__cxx11::basic_string", align 8
  %exn.slot = alloca ptr, align 8
  %ehselector.slot = alloca i32, align 4
  %agg.tmp1 = alloca %"class.std::__cxx11::basic_string", align 8
  store ptr %s, ptr %s.addr, align 8
  store i32 %format_flags, ptr %format_flags.addr, align 4
  store i32 %type, ptr %type.addr, align 4
  %0 = load ptr, ptr %s.addr, align 8
  call void @_ZNSt7__cxx1112basic_stringIcSt11char_traitsIcESaIcEEC1ERKS4_(ptr noundef nonnull align 8 dereferenceable(32) %agg.tmp, ptr noundef nonnull align 8 dereferenceable(32) %0)
  %1 = load i32, ptr %format_flags.addr, align 4
  %2 = load i32, ptr %type.addr, align 4
  invoke void @_ZN12_GLOBAL__N_117ExpectParsedFloatILi10EEEvNSt7__cxx1112basic_stringIcSt11char_traitsIcESaIcEEEN4absl12chars_formatENS7_16strings_internal9FloatTypeEmii(ptr noundef %agg.tmp, i32 noundef %1, i32 noundef %2, i64 noundef 0, i32 noundef 0, i32 noundef -999)
          to label %invoke.cont unwind label %lpad

invoke.cont:                                      ; preds = %entry
  call void @_ZNSt7__cxx1112basic_stringIcSt11char_traitsIcESaIcEED1Ev(ptr noundef nonnull align 8 dereferenceable(32) %agg.tmp) #3
  %3 = load ptr, ptr %s.addr, align 8
  call void @_ZNSt7__cxx1112basic_stringIcSt11char_traitsIcESaIcEEC1ERKS4_(ptr noundef nonnull align 8 dereferenceable(32) %agg.tmp1, ptr noundef nonnull align 8 dereferenceable(32) %3)
  %4 = load i32, ptr %format_flags.addr, align 4
  %5 = load i32, ptr %type.addr, align 4
  invoke void @_ZN12_GLOBAL__N_117ExpectParsedFloatILi16EEEvNSt7__cxx1112basic_stringIcSt11char_traitsIcESaIcEEEN4absl12chars_formatENS7_16strings_internal9FloatTypeEmii(ptr noundef %agg.tmp1, i32 noundef %4, i32 noundef %5, i64 noundef 0, i32 noundef 0, i32 noundef -999)
          to label %invoke.cont3 unwind label %lpad2

invoke.cont3:                                     ; preds = %invoke.cont
  call void @_ZNSt7__cxx1112basic_stringIcSt11char_traitsIcESaIcEED1Ev(ptr noundef nonnull align 8 dereferenceable(32) %agg.tmp1) #3
  ret void

lpad:                                             ; preds = %entry
  %6 = landingpad { ptr, i32 }
          cleanup
  %7 = extractvalue { ptr, i32 } %6, 0
  store ptr %7, ptr %exn.slot, align 8
  %8 = extractvalue { ptr, i32 } %6, 1
  store i32 %8, ptr %ehselector.slot, align 4
  call void @_ZNSt7__cxx1112basic_stringIcSt11char_traitsIcESaIcEED1Ev(ptr noundef nonnull align 8 dereferenceable(32) %agg.tmp) #3
  br label %eh.resume

lpad2:                                            ; preds = %invoke.cont
  %9 = landingpad { ptr, i32 }
          cleanup
  %10 = extractvalue { ptr, i32 } %9, 0
  store ptr %10, ptr %exn.slot, align 8
  %11 = extractvalue { ptr, i32 } %9, 1
  store i32 %11, ptr %ehselector.slot, align 4
  call void @_ZNSt7__cxx1112basic_stringIcSt11char_traitsIcESaIcEED1Ev(ptr noundef nonnull align 8 dereferenceable(32) %agg.tmp1) #3
  br label %eh.resume

eh.resume:                                        ; preds = %lpad2, %lpad
  %exn = load ptr, ptr %exn.slot, align 8
  %sel = load i32, ptr %ehselector.slot, align 4
  %lpad.val = insertvalue { ptr, i32 } poison, ptr %exn, 0
  %lpad.val4 = insertvalue { ptr, i32 } %lpad.val, i32 %sel, 1
  resume { ptr, i32 } %lpad.val4
}