; Function Attrs: mustprogress uwtable
define internal fastcc void @_ZN12_GLOBAL__N_113ExpectSpecialERKNSt7__cxx1112basic_stringIcSt11char_traitsIcESaIcEEEN4absl12chars_formatENS8_16strings_internal9FloatTypeE(ptr noundef nonnull align 8 dereferenceable(32) %s, i32 noundef %type) unnamed_addr #3 personality ptr @__gxx_personality_v0 {
entry:
  %agg.tmp = alloca %"class.std::__cxx11::basic_string", align 8
  %agg.tmp1 = alloca %"class.std::__cxx11::basic_string", align 8
  call void @_ZNSt7__cxx1112basic_stringIcSt11char_traitsIcESaIcEEC1ERKS4_(ptr noundef nonnull align 8 dereferenceable(32) %agg.tmp, ptr noundef nonnull align 8 dereferenceable(32) %s)
  invoke fastcc void @_ZN12_GLOBAL__N_117ExpectParsedFloatILi10EEEvNSt7__cxx1112basic_stringIcSt11char_traitsIcESaIcEEEN4absl12chars_formatENS7_16strings_internal9FloatTypeEmii(ptr noundef nonnull %agg.tmp, i32 noundef 3, i32 noundef %type, i64 noundef 0, i32 noundef 0, i32 noundef -999)
          to label %invoke.cont unwind label %lpad

invoke.cont:                                      ; preds = %entry
  call void @_ZNSt7__cxx1112basic_stringIcSt11char_traitsIcESaIcEED1Ev(ptr noundef nonnull align 8 dereferenceable(32) %agg.tmp) #14
  call void @_ZNSt7__cxx1112basic_stringIcSt11char_traitsIcESaIcEEC1ERKS4_(ptr noundef nonnull align 8 dereferenceable(32) %agg.tmp1, ptr noundef nonnull align 8 dereferenceable(32) %s)
  invoke fastcc void @_ZN12_GLOBAL__N_117ExpectParsedFloatILi16EEEvNSt7__cxx1112basic_stringIcSt11char_traitsIcESaIcEEEN4absl12chars_formatENS7_16strings_internal9FloatTypeEmii(ptr noundef nonnull %agg.tmp1, i32 noundef 3, i32 noundef %type, i64 noundef 0, i32 noundef 0)
          to label %invoke.cont3 unwind label %lpad2

invoke.cont3:                                     ; preds = %invoke.cont
  call void @_ZNSt7__cxx1112basic_stringIcSt11char_traitsIcESaIcEED1Ev(ptr noundef nonnull align 8 dereferenceable(32) %agg.tmp1) #14
  ret void

lpad:                                             ; preds = %entry
  %0 = landingpad { ptr, i32 }
          cleanup
  br label %eh.resume

lpad2:                                            ; preds = %invoke.cont
  %1 = landingpad { ptr, i32 }
          cleanup
  br label %eh.resume

eh.resume:                                        ; preds = %lpad2, %lpad
  %agg.tmp1.sink = phi ptr [ %agg.tmp1, %lpad2 ], [ %agg.tmp, %lpad ]
  %.pn = phi { ptr, i32 } [ %1, %lpad2 ], [ %0, %lpad ]
  call void @_ZNSt7__cxx1112basic_stringIcSt11char_traitsIcESaIcEED1Ev(ptr noundef nonnull align 8 dereferenceable(32) %agg.tmp1.sink) #14
  resume { ptr, i32 } %.pn
}